target datalayout = "e-m:e-p270:32:32-p271:32:32-p272:64:64-i64:64-i128:128-f80:128-n8:16:32:64-S128"
target triple = "x86_64-pc-linux-gnu"

%class.Phase = type { i32, ptr }
%class.GrowableArrayBase = type { i32, i32 }
%class.GrowableArrayMetadata = type { i64 }
%class.VectorSet = type { i32, ptr, i32, ptr }
%class.PhaseIdealLoop = type <{ %class.PhaseTransform, %class.Node_List, ptr, ptr, ptr, i32, [4 x i8], ptr, i8, [7 x i8], %class.Node_List, %class.Node_List, %class.GrowableArray.12, i32, i32, ptr, ptr, ptr, i32, i8, [3 x i8], i32, i8, [3 x i8] }>
%class.PhaseTransform = type { ptr, %class.Phase }
%class.Node_List = type <{ %class.Node_Array, i32, [4 x i8] }>
%class.Node_Array = type { ptr, i32, ptr }
%class.GrowableArray.12 = type { %class.GrowableArrayWithAllocator.13, %class.GrowableArrayMetadata }
%class.GrowableArrayWithAllocator.13 = type { %class.GrowableArrayView.14 }
%class.GrowableArrayView.14 = type { %class.GrowableArrayBase, ptr }
%class.Node = type <{ ptr, ptr, ptr, i32, i32, i32, i32, i32, i32, i32, [4 x i8] }>

; Function Attrs: mustprogress nounwind uwtable
define linkonce_odr hidden noundef i32 @_ZNK4Node3reqEv(ptr noundef nonnull align 8 dereferenceable(52) %0) #1 comdat align 2 {
  %2 = alloca ptr, align 8
  store ptr %0, ptr %2, align 8
  %3 = load ptr, ptr %2, align 8
  %4 = getelementptr inbounds %class.Node, ptr %3, i32 0, i32 3
  %5 = load i32, ptr %4, align 8
  ret i32 %5
}

; Function Attrs: mustprogress nounwind uwtable
define linkonce_odr hidden noundef nonnull align 8 dereferenceable(2416) ptr @_ZNK14PhaseIdealLoop4igvnEv(ptr noundef nonnull align 8 dereferenceable(237) %0) #1 comdat align 2 {
  %2 = alloca ptr, align 8
  store ptr %0, ptr %2, align 8
  %3 = load ptr, ptr %2, align 8
  %4 = getelementptr inbounds %class.PhaseIdealLoop, ptr %3, i32 0, i32 2
  %5 = load ptr, ptr %4, align 8
  ret ptr %5
}

; Function Attrs: mustprogress nounwind uwtable
define linkonce_odr hidden noundef ptr @_ZNK4Node2inEj(ptr noundef nonnull align 8 dereferenceable(52) %0, i32 noundef %1) #1 comdat align 2 {
  %3 = alloca ptr, align 8
  %4 = alloca i32, align 4
  store ptr %0, ptr %3, align 8
  store i32 %1, ptr %4, align 4
  %5 = load ptr, ptr %3, align 8
  %6 = getelementptr inbounds %class.Node, ptr %5, i32 0, i32 1
  %7 = load ptr, ptr %6, align 8
  %8 = load i32, ptr %4, align 4
  %9 = zext i32 %8 to i64
  %10 = getelementptr inbounds ptr, ptr %7, i64 %9
  %11 = load ptr, ptr %10, align 8
  ret ptr %11
}

; Function Attrs: mustprogress nounwind uwtable
define linkonce_odr hidden noundef zeroext i1 @_ZN9VectorSet8test_setEj(ptr noundef nonnull align 8 dereferenceable(32) %0, i32 noundef %1) #1 comdat align 2 {
  %3 = alloca ptr, align 8
  %4 = alloca i32, align 4
  %5 = alloca i32, align 4
  %6 = alloca i32, align 4
  %7 = alloca i32, align 4
  store ptr %0, ptr %3, align 8
  store i32 %1, ptr %4, align 4
  %8 = load ptr, ptr %3, align 8
  %9 = load i32, ptr %4, align 4
  %10 = lshr i32 %9, 5
  store i32 %10, ptr %5, align 4
  %11 = load i32, ptr %5, align 4
  %12 = getelementptr inbounds %class.VectorSet, ptr %8, i32 0, i32 0
  %13 = load i32, ptr %12, align 8
  %14 = icmp uge i32 %11, %13
  br i1 %14, label %15, label %17

15:                                               ; preds = %2
  %16 = load i32, ptr %5, align 4
  call void @_ZN9VectorSet4growEj(ptr noundef nonnull align 8 dereferenceable(32) %8, i32 noundef %16)
  br label %17

17:                                               ; preds = %15, %2
  %18 = load i32, ptr %4, align 4
  %19 = and i32 %18, 31
  %20 = shl i32 1, %19
  store i32 %20, ptr %6, align 4
  %21 = getelementptr inbounds %class.VectorSet, ptr %8, i32 0, i32 1
  %22 = load ptr, ptr %21, align 8
  %23 = load i32, ptr %5, align 4
  %24 = zext i32 %23 to i64
  %25 = getelementptr inbounds i32, ptr %22, i64 %24
  %26 = load i32, ptr %25, align 4
  store i32 %26, ptr %7, align 4
  %27 = load i32, ptr %7, align 4
  %28 = load i32, ptr %6, align 4
  %29 = or i32 %27, %28
  %30 = getelementptr inbounds %class.VectorSet, ptr %8, i32 0, i32 1
  %31 = load ptr, ptr %30, align 8
  %32 = load i32, ptr %5, align 4
  %33 = zext i32 %32 to i64
  %34 = getelementptr inbounds i32, ptr %31, i64 %33
  store i32 %29, ptr %34, align 4
  %35 = load i32, ptr %7, align 4
  %36 = load i32, ptr %6, align 4
  %37 = and i32 %35, %36
  %38 = icmp ne i32 %37, 0
  ret i1 %38
}

; Function Attrs: mustprogress nounwind uwtable
define hidden noundef ptr @_ZN26ShenandoahBarrierC2Support13get_load_addrEP14PhaseIdealLoopR9VectorSetP4Node(ptr noundef %0, ptr noundef nonnull align 8 dereferenceable(32) %1, ptr noundef %2) #1 align 2 {
  %4 = alloca ptr, align 8
  %5 = alloca ptr, align 8
  %6 = alloca ptr, align 8
  %7 = alloca ptr, align 8
  %8 = alloca ptr, align 8
  %9 = alloca ptr, align 8
  %10 = alloca ptr, align 8
  %11 = alloca i32, align 4
  %12 = alloca ptr, align 8
  store ptr %0, ptr %5, align 8
  store ptr %1, ptr %6, align 8
  store ptr %2, ptr %7, align 8
  %13 = load ptr, ptr %6, align 8
  %14 = load ptr, ptr %7, align 8
  %15 = getelementptr inbounds %class.Node, ptr %14, i32 0, i32 7
  %16 = load i32, ptr %15, align 8
  %17 = call noundef zeroext i1 @_ZN9VectorSet8test_setEj(ptr noundef nonnull align 8 dereferenceable(32) %13, i32 noundef %16)
  br i1 %17, label %18, label %19

18:                                               ; preds = %3
  store ptr null, ptr %4, align 8
  br label %134

19:                                               ; preds = %3
  %20 = load ptr, ptr %7, align 8
  %21 = load ptr, ptr %20, align 8
  %22 = getelementptr inbounds ptr, ptr %21, i64 0
  %23 = load ptr, ptr %22, align 8
  %24 = call noundef i32 %23(ptr noundef nonnull align 8 dereferenceable(52) %20)
  switch i32 %24, label %130 [
    i32 282, label %25
    i32 60, label %31
    i32 63, label %31
    i32 154, label %31
    i32 168, label %31
    i32 199, label %37
    i32 198, label %37
    i32 107, label %40
    i32 106, label %40
    i32 117, label %40
    i32 116, label %40
    i32 303, label %40
    i32 304, label %40
    i32 74, label %44
    i32 75, label %44
    i32 275, label %83
    i32 310, label %114
    i32 309, label %120
    i32 46, label %126
    i32 48, label %126
    i32 52, label %126
    i32 119, label %126
    i32 125, label %126
    i32 271, label %126
    i32 153, label %126
  ]

25:                                               ; preds = %19
  %26 = load ptr, ptr %5, align 8
  %27 = load ptr, ptr %6, align 8
  %28 = load ptr, ptr %7, align 8
  %29 = call noundef ptr @_ZNK4Node2inEj(ptr noundef nonnull align 8 dereferenceable(52) %28, i32 noundef 0)
  %30 = call noundef ptr @_ZN26ShenandoahBarrierC2Support13get_load_addrEP14PhaseIdealLoopR9VectorSetP4Node(ptr noundef %26, ptr noundef nonnull align 8 dereferenceable(32) %27, ptr noundef %29)
  store ptr %30, ptr %4, align 8
  br label %134

31:                                               ; preds = %19, %19, %19, %19
  %32 = load ptr, ptr %5, align 8
  %33 = load ptr, ptr %6, align 8
  %34 = load ptr, ptr %7, align 8
  %35 = call noundef ptr @_ZNK4Node2inEj(ptr noundef nonnull align 8 dereferenceable(52) %34, i32 noundef 1)
  %36 = call noundef ptr @_ZN26ShenandoahBarrierC2Support13get_load_addrEP14PhaseIdealLoopR9VectorSetP4Node(ptr noundef %32, ptr noundef nonnull align 8 dereferenceable(32) %33, ptr noundef %35)
  store ptr %36, ptr %4, align 8
  br label %134

37:                                               ; preds = %19, %19
  %38 = load ptr, ptr %7, align 8
  %39 = call noundef ptr @_ZNK4Node2inEj(ptr noundef nonnull align 8 dereferenceable(52) %38, i32 noundef 2)
  store ptr %39, ptr %4, align 8
  br label %134

40:                                               ; preds = %19, %19, %19, %19, %19, %19
  %41 = load ptr, ptr %5, align 8
  %42 = call noundef nonnull align 8 dereferenceable(2416) ptr @_ZNK14PhaseIdealLoop4igvnEv(ptr noundef nonnull align 8 dereferenceable(237) %41)
  %43 = call noundef ptr @_ZN11PhaseValues7zeroconE9BasicType(ptr noundef nonnull align 8 dereferenceable(2400) %42, i8 noundef zeroext 12)
  store ptr %43, ptr %4, align 8
  br label %134

44:                                               ; preds = %19, %19
  %45 = load ptr, ptr %5, align 8
  %46 = load ptr, ptr %6, align 8
  %47 = load ptr, ptr %7, align 8
  %48 = call noundef ptr @_ZNK4Node2inEj(ptr noundef nonnull align 8 dereferenceable(52) %47, i32 noundef 3)
  %49 = call noundef ptr @_ZN26ShenandoahBarrierC2Support13get_load_addrEP14PhaseIdealLoopR9VectorSetP4Node(ptr noundef %45, ptr noundef nonnull align 8 dereferenceable(32) %46, ptr noundef %48)
  store ptr %49, ptr %8, align 8
  %50 = load ptr, ptr %5, align 8
  %51 = load ptr, ptr %6, align 8
  %52 = load ptr, ptr %7, align 8
  %53 = call noundef ptr @_ZNK4Node2inEj(ptr noundef nonnull align 8 dereferenceable(52) %52, i32 noundef 2)
  %54 = call noundef ptr @_ZN26ShenandoahBarrierC2Support13get_load_addrEP14PhaseIdealLoopR9VectorSetP4Node(ptr noundef %50, ptr noundef nonnull align 8 dereferenceable(32) %51, ptr noundef %53)
  store ptr %54, ptr %9, align 8
  %55 = load ptr, ptr %8, align 8
  %56 = icmp ne ptr %55, null
  br i1 %56, label %57, label %62

57:                                               ; preds = %44
  %58 = load ptr, ptr %9, align 8
  %59 = icmp eq ptr %58, null
  br i1 %59, label %60, label %62

60:                                               ; preds = %57
  %61 = load ptr, ptr %8, align 8
  store ptr %61, ptr %4, align 8
  br label %134

62:                                               ; preds = %57, %44
  %63 = load ptr, ptr %8, align 8
  %64 = icmp eq ptr %63, null
  br i1 %64, label %65, label %70

65:                                               ; preds = %62
  %66 = load ptr, ptr %9, align 8
  %67 = icmp ne ptr %66, null
  br i1 %67, label %68, label %70

68:                                               ; preds = %65
  %69 = load ptr, ptr %9, align 8
  store ptr %69, ptr %4, align 8
  br label %134

70:                                               ; preds = %65, %62
  %71 = load ptr, ptr %8, align 8
  %72 = icmp ne ptr %71, null
  br i1 %72, label %73, label %79

73:                                               ; preds = %70
  %74 = load ptr, ptr %8, align 8
  %75 = load ptr, ptr %9, align 8
  %76 = icmp eq ptr %74, %75
  br i1 %76, label %77, label %79

77:                                               ; preds = %73
  %78 = load ptr, ptr %8, align 8
  store ptr %78, ptr %4, align 8
  br label %134

79:                                               ; preds = %73, %70
  %80 = load ptr, ptr %5, align 8
  %81 = call noundef nonnull align 8 dereferenceable(2416) ptr @_ZNK14PhaseIdealLoop4igvnEv(ptr noundef nonnull align 8 dereferenceable(237) %80)
  %82 = call noundef ptr @_ZN11PhaseValues7zeroconE9BasicType(ptr noundef nonnull align 8 dereferenceable(2400) %81, i8 noundef zeroext 12)
  store ptr %82, ptr %4, align 8
  br label %134

83:                                               ; preds = %19
  store ptr null, ptr %10, align 8
  store i32 1, ptr %11, align 4
  br label %84

84:                                               ; preds = %109, %83
  %85 = load i32, ptr %11, align 4
  %86 = load ptr, ptr %7, align 8
  %87 = call noundef i32 @_ZNK4Node3reqEv(ptr noundef nonnull align 8 dereferenceable(52) %86)
  %88 = icmp ult i32 %85, %87
  br i1 %88, label %89, label %112

89:                                               ; preds = %84
  %90 = load ptr, ptr %5, align 8
  %91 = load ptr, ptr %6, align 8
  %92 = load ptr, ptr %7, align 8
  %93 = load i32, ptr %11, align 4
  %94 = call noundef ptr @_ZNK4Node2inEj(ptr noundef nonnull align 8 dereferenceable(52) %92, i32 noundef %93)
  %95 = call noundef ptr @_ZN26ShenandoahBarrierC2Support13get_load_addrEP14PhaseIdealLoopR9VectorSetP4Node(ptr noundef %90, ptr noundef nonnull align 8 dereferenceable(32) %91, ptr noundef %94)
  store ptr %95, ptr %12, align 8
  %96 = load ptr, ptr %10, align 8
  %97 = icmp eq ptr %96, null
  br i1 %97, label %98, label %100

98:                                               ; preds = %89
  %99 = load ptr, ptr %12, align 8
  store ptr %99, ptr %10, align 8
  br label %100

100:                                              ; preds = %98, %89
  %101 = load ptr, ptr %10, align 8
  %102 = load ptr, ptr %12, align 8
  %103 = icmp ne ptr %101, %102
  br i1 %103, label %104, label %108

104:                                              ; preds = %100
  %105 = load ptr, ptr %5, align 8
  %106 = call noundef nonnull align 8 dereferenceable(2416) ptr @_ZNK14PhaseIdealLoop4igvnEv(ptr noundef nonnull align 8 dereferenceable(237) %105)
  %107 = call noundef ptr @_ZN11PhaseValues7zeroconE9BasicType(ptr noundef nonnull align 8 dereferenceable(2400) %106, i8 noundef zeroext 12)
  store ptr %107, ptr %4, align 8
  br label %134

108:                                              ; preds = %100
  br label %109

109:                                              ; preds = %108
  %110 = load i32, ptr %11, align 4
  %111 = add i32 %110, 1
  store i32 %111, ptr %11, align 4
  br label %84, !llvm.loop !41

112:                                              ; preds = %84
  %113 = load ptr, ptr %10, align 8
  store ptr %113, ptr %4, align 8
  br label %134

114:                                              ; preds = %19
  %115 = load ptr, ptr %5, align 8
  %116 = load ptr, ptr %6, align 8
  %117 = load ptr, ptr %7, align 8
  %118 = call noundef ptr @_ZNK4Node2inEj(ptr noundef nonnull align 8 dereferenceable(52) %117, i32 noundef 1)
  %119 = call noundef ptr @_ZN26ShenandoahBarrierC2Support13get_load_addrEP14PhaseIdealLoopR9VectorSetP4Node(ptr noundef %115, ptr noundef nonnull align 8 dereferenceable(32) %116, ptr noundef %118)
  store ptr %119, ptr %4, align 8
  br label %134

120:                                              ; preds = %19
  %121 = load ptr, ptr %5, align 8
  %122 = load ptr, ptr %6, align 8
  %123 = load ptr, ptr %7, align 8
  %124 = call noundef ptr @_ZNK4Node2inEj(ptr noundef nonnull align 8 dereferenceable(52) %123, i32 noundef 1)
  %125 = call noundef ptr @_ZN26ShenandoahBarrierC2Support13get_load_addrEP14PhaseIdealLoopR9VectorSetP4Node(ptr noundef %121, ptr noundef nonnull align 8 dereferenceable(32) %122, ptr noundef %124)
  store ptr %125, ptr %4, align 8
  br label %134

126:                                              ; preds = %19, %19, %19, %19, %19, %19, %19
  %127 = load ptr, ptr %5, align 8
  %128 = call noundef nonnull align 8 dereferenceable(2416) ptr @_ZNK14PhaseIdealLoop4igvnEv(ptr noundef nonnull align 8 dereferenceable(237) %127)
  %129 = call noundef ptr @_ZN11PhaseValues7zeroconE9BasicType(ptr noundef nonnull align 8 dereferenceable(2400) %128, i8 noundef zeroext 12)
  store ptr %129, ptr %4, align 8
  br label %134

130:                                              ; preds = %19
  %131 = load ptr, ptr %5, align 8
  %132 = call noundef nonnull align 8 dereferenceable(2416) ptr @_ZNK14PhaseIdealLoop4igvnEv(ptr noundef nonnull align 8 dereferenceable(237) %131)
  %133 = call noundef ptr @_ZN11PhaseValues7zeroconE9BasicType(ptr noundef nonnull align 8 dereferenceable(2400) %132, i8 noundef zeroext 12)
  store ptr %133, ptr %4, align 8
  br label %134

134:                                              ; preds = %130, %126, %120, %114, %112, %104, %79, %77, %68, %60, %40, %37, %31, %25, %18
  %135 = load ptr, ptr %4, align 8
  ret ptr %135
}