; Function Attrs: mustprogress nounwind uwtable
define hidden noundef ptr @_ZN26ShenandoahBarrierC2Support13get_load_addrEP14PhaseIdealLoopR9VectorSetP4Node(ptr noundef %0, ptr noundef nonnull align 8 dereferenceable(32) %1, ptr noundef %2) local_unnamed_addr #0 align 2 {
  %4 = getelementptr inbounds i8, ptr %1, i64 8
  br label %tailrecurse

tailrecurse:                                      ; preds = %tailrecurse.backedge, %3
  %.tr60 = phi ptr [ %2, %3 ], [ %.tr60.be, %tailrecurse.backedge ]
  %5 = getelementptr inbounds i8, ptr %.tr60, i64 40
  %6 = load i32, ptr %5, align 8
  %7 = lshr i32 %6, 5
  %8 = load i32, ptr %1, align 8
  %.not.i = icmp ult i32 %7, %8
  br i1 %.not.i, label %_ZN9VectorSet8test_setEj.exit, label %9

9:                                                ; preds = %tailrecurse
  tail call void @_ZN9VectorSet4growEj(ptr noundef nonnull align 8 dereferenceable(32) %1, i32 noundef %7) #10
  br label %_ZN9VectorSet8test_setEj.exit

_ZN9VectorSet8test_setEj.exit:                    ; preds = %tailrecurse, %9
  %10 = and i32 %6, 31
  %11 = shl nuw i32 1, %10
  %12 = load ptr, ptr %4, align 8
  %13 = zext nneg i32 %7 to i64
  %14 = getelementptr inbounds i32, ptr %12, i64 %13
  %15 = load i32, ptr %14, align 4
  %16 = or i32 %15, %11
  store i32 %16, ptr %14, align 4
  %17 = and i32 %15, %11
  %.not58 = icmp eq i32 %17, 0
  br i1 %.not58, label %18, label %.loopexit

18:                                               ; preds = %_ZN9VectorSet8test_setEj.exit
  %19 = load ptr, ptr %.tr60, align 8
  %20 = load ptr, ptr %19, align 8
  %21 = tail call noundef i32 %20(ptr noundef nonnull align 8 dereferenceable(52) %.tr60) #10
  switch i32 %21, label %89 [
    i32 282, label %26
    i32 60, label %29
    i32 63, label %29
    i32 154, label %29
    i32 168, label %29
    i32 199, label %33
    i32 198, label %33
    i32 107, label %38
    i32 106, label %38
    i32 117, label %38
    i32 116, label %38
    i32 303, label %38
    i32 304, label %38
    i32 74, label %42
    i32 75, label %42
    i32 275, label %.preheader
    i32 310, label %77
    i32 309, label %81
    i32 46, label %85
    i32 48, label %85
    i32 52, label %85
    i32 119, label %85
    i32 125, label %85
    i32 271, label %85
    i32 153, label %85
  ]

.preheader:                                       ; preds = %18
  %22 = getelementptr inbounds i8, ptr %.tr60, i64 24
  %23 = load i32, ptr %22, align 8
  %24 = icmp ugt i32 %23, 1
  br i1 %24, label %.lr.ph, label %.loopexit

.lr.ph:                                           ; preds = %.preheader
  %25 = getelementptr inbounds i8, ptr %.tr60, i64 8
  br label %67

26:                                               ; preds = %18
  %27 = getelementptr inbounds i8, ptr %.tr60, i64 8
  %28 = load ptr, ptr %27, align 8
  br label %tailrecurse.backedge

tailrecurse.backedge:                             ; preds = %26, %29, %77, %81
  %.tr60.be.in = phi ptr [ %28, %26 ], [ %32, %29 ], [ %80, %77 ], [ %84, %81 ]
  %.tr60.be = load ptr, ptr %.tr60.be.in, align 8
  br label %tailrecurse

29:                                               ; preds = %18, %18, %18, %18
  %30 = getelementptr inbounds i8, ptr %.tr60, i64 8
  %31 = load ptr, ptr %30, align 8
  %32 = getelementptr inbounds i8, ptr %31, i64 8
  br label %tailrecurse.backedge

33:                                               ; preds = %18, %18
  %34 = getelementptr inbounds i8, ptr %.tr60, i64 8
  %35 = load ptr, ptr %34, align 8
  %36 = getelementptr inbounds i8, ptr %35, i64 16
  %37 = load ptr, ptr %36, align 8
  br label %.loopexit

38:                                               ; preds = %18, %18, %18, %18, %18, %18
  %39 = getelementptr inbounds i8, ptr %0, i64 56
  %40 = load ptr, ptr %39, align 8
  %41 = tail call noundef ptr @_ZN11PhaseValues7zeroconE9BasicType(ptr noundef nonnull align 8 dereferenceable(2400) %40, i8 noundef zeroext 12) #10
  br label %.loopexit

42:                                               ; preds = %18, %18
  %43 = getelementptr inbounds i8, ptr %.tr60, i64 8
  %44 = load ptr, ptr %43, align 8
  %45 = getelementptr inbounds i8, ptr %44, i64 24
  %46 = load ptr, ptr %45, align 8
  %47 = tail call noundef ptr @_ZN26ShenandoahBarrierC2Support13get_load_addrEP14PhaseIdealLoopR9VectorSetP4Node(ptr noundef %0, ptr noundef nonnull align 8 dereferenceable(32) %1, ptr noundef %46)
  %48 = load ptr, ptr %43, align 8
  %49 = getelementptr inbounds i8, ptr %48, i64 16
  %50 = load ptr, ptr %49, align 8
  %51 = tail call noundef ptr @_ZN26ShenandoahBarrierC2Support13get_load_addrEP14PhaseIdealLoopR9VectorSetP4Node(ptr noundef %0, ptr noundef nonnull align 8 dereferenceable(32) %1, ptr noundef %50)
  %52 = icmp ne ptr %47, null
  %53 = icmp eq ptr %51, null
  %or.cond = and i1 %52, %53
  br i1 %or.cond, label %.loopexit, label %54

54:                                               ; preds = %42
  %55 = icmp eq ptr %47, null
  %56 = icmp ne ptr %51, null
  %or.cond3 = and i1 %55, %56
  br i1 %or.cond3, label %.loopexit, label %57

57:                                               ; preds = %54
  %58 = icmp eq ptr %47, %51
  %or.cond57 = and i1 %52, %58
  br i1 %or.cond57, label %.loopexit, label %59

59:                                               ; preds = %57
  %60 = getelementptr inbounds i8, ptr %0, i64 56
  %61 = load ptr, ptr %60, align 8
  %62 = tail call noundef ptr @_ZN11PhaseValues7zeroconE9BasicType(ptr noundef nonnull align 8 dereferenceable(2400) %61, i8 noundef zeroext 12) #10
  br label %.loopexit

63:                                               ; preds = %67
  %indvars.iv.next = add nuw nsw i64 %indvars.iv, 1
  %64 = load i32, ptr %22, align 8
  %65 = zext i32 %64 to i64
  %66 = icmp ult i64 %indvars.iv.next, %65
  br i1 %66, label %67, label %.loopexit, !llvm.loop !44

67:                                               ; preds = %.lr.ph, %63
  %indvars.iv = phi i64 [ 1, %.lr.ph ], [ %indvars.iv.next, %63 ]
  %.05369 = phi ptr [ null, %.lr.ph ], [ %spec.select, %63 ]
  %68 = load ptr, ptr %25, align 8
  %69 = getelementptr inbounds ptr, ptr %68, i64 %indvars.iv
  %70 = load ptr, ptr %69, align 8
  %71 = tail call noundef ptr @_ZN26ShenandoahBarrierC2Support13get_load_addrEP14PhaseIdealLoopR9VectorSetP4Node(ptr noundef %0, ptr noundef nonnull align 8 dereferenceable(32) %1, ptr noundef %70)
  %72 = icmp eq ptr %.05369, null
  %spec.select = select i1 %72, ptr %71, ptr %.05369
  %.not = icmp eq ptr %spec.select, %71
  br i1 %.not, label %63, label %73

73:                                               ; preds = %67
  %74 = getelementptr inbounds i8, ptr %0, i64 56
  %75 = load ptr, ptr %74, align 8
  %76 = tail call noundef ptr @_ZN11PhaseValues7zeroconE9BasicType(ptr noundef nonnull align 8 dereferenceable(2400) %75, i8 noundef zeroext 12) #10
  br label %.loopexit

77:                                               ; preds = %18
  %78 = getelementptr inbounds i8, ptr %.tr60, i64 8
  %79 = load ptr, ptr %78, align 8
  %80 = getelementptr inbounds i8, ptr %79, i64 8
  br label %tailrecurse.backedge

81:                                               ; preds = %18
  %82 = getelementptr inbounds i8, ptr %.tr60, i64 8
  %83 = load ptr, ptr %82, align 8
  %84 = getelementptr inbounds i8, ptr %83, i64 8
  br label %tailrecurse.backedge

85:                                               ; preds = %18, %18, %18, %18, %18, %18, %18
  %86 = getelementptr inbounds i8, ptr %0, i64 56
  %87 = load ptr, ptr %86, align 8
  %88 = tail call noundef ptr @_ZN11PhaseValues7zeroconE9BasicType(ptr noundef nonnull align 8 dereferenceable(2400) %87, i8 noundef zeroext 12) #10
  br label %.loopexit

89:                                               ; preds = %18
  %90 = getelementptr inbounds i8, ptr %0, i64 56
  %91 = load ptr, ptr %90, align 8
  %92 = tail call noundef ptr @_ZN11PhaseValues7zeroconE9BasicType(ptr noundef nonnull align 8 dereferenceable(2400) %91, i8 noundef zeroext 12) #10
  br label %.loopexit

.loopexit:                                        ; preds = %_ZN9VectorSet8test_setEj.exit, %63, %.preheader, %57, %54, %42, %89, %85, %73, %59, %38, %33
  %.0 = phi ptr [ %92, %89 ], [ %88, %85 ], [ %76, %73 ], [ %62, %59 ], [ %41, %38 ], [ %37, %33 ], [ %47, %42 ], [ %51, %54 ], [ %47, %57 ], [ null, %.preheader ], [ %spec.select, %63 ], [ null, %_ZN9VectorSet8test_setEj.exit ]
  ret ptr %.0
}